target datalayout = "e-m:e-p270:32:32-p271:32:32-p272:64:64-i64:64-i128:128-f80:128-n8:16:32:64-S128"
target triple = "x86_64-unknown-linux-gnu"

%"class.llvh::Optional" = type { %"struct.llvh::optional_detail::OptionalStorage" }
%"struct.llvh::optional_detail::OptionalStorage" = type { %"struct.llvh::AlignedCharArrayUnion.7", i8, [3 x i8] }
%"struct.llvh::AlignedCharArrayUnion.7" = type { %"struct.llvh::AlignedCharArray.8" }
%"struct.llvh::AlignedCharArray.8" = type { [4 x i8] }

; Function Attrs: mustprogress nounwind uwtable
define linkonce_odr hidden void @_ZN4llvh15optional_detail15OptionalStorageIN6hermes18BinaryOperatorInst6OpKindELb1EEC2Ev(ptr noundef nonnull align 4 dereferenceable(5) %this) unnamed_addr #0 comdat align 2 {
entry:
  %this.addr = alloca ptr, align 8
  store ptr %this, ptr %this.addr, align 8
  %this1 = load ptr, ptr %this.addr, align 8
  %hasVal = getelementptr inbounds %"struct.llvh::optional_detail::OptionalStorage", ptr %this1, i32 0, i32 1
  store i8 0, ptr %hasVal, align 4
  ret void
}

; Function Attrs: mustprogress nounwind uwtable
define linkonce_odr hidden void @_ZN4llvh15optional_detail15OptionalStorageIN6hermes18BinaryOperatorInst6OpKindELb1EEC2ERKS4_(ptr noundef nonnull align 4 dereferenceable(5) %this, ptr noundef nonnull align 4 dereferenceable(4) %y) unnamed_addr #0 comdat align 2 {
entry:
  %this.addr = alloca ptr, align 8
  %y.addr = alloca ptr, align 8
  store ptr %this, ptr %this.addr, align 8
  store ptr %y, ptr %y.addr, align 8
  %this1 = load ptr, ptr %this.addr, align 8
  %hasVal = getelementptr inbounds %"struct.llvh::optional_detail::OptionalStorage", ptr %this1, i32 0, i32 1
  store i8 1, ptr %hasVal, align 4
  %storage2 = getelementptr inbounds %"struct.llvh::optional_detail::OptionalStorage", ptr %this1, i32 0, i32 0
  %buffer = getelementptr inbounds %"struct.llvh::AlignedCharArray.8", ptr %storage2, i32 0, i32 0
  %arraydecay = getelementptr inbounds [4 x i8], ptr %buffer, i64 0, i64 0
  %0 = load ptr, ptr %y.addr, align 8
  %1 = load i32, ptr %0, align 4
  store i32 %1, ptr %arraydecay, align 4
  ret void
}

; Function Attrs: mustprogress nounwind uwtable
define linkonce_odr hidden void @_ZN4llvh8OptionalIN6hermes18BinaryOperatorInst6OpKindEEC2ENS_8NoneTypeE(ptr noundef nonnull align 4 dereferenceable(8) %this, i32 noundef %0) unnamed_addr #0 comdat align 2 {
entry:
  %this.addr = alloca ptr, align 8
  %.addr = alloca i32, align 4
  store ptr %this, ptr %this.addr, align 8
  store i32 %0, ptr %.addr, align 4
  %this1 = load ptr, ptr %this.addr, align 8
  %Storage = getelementptr inbounds %"class.llvh::Optional", ptr %this1, i32 0, i32 0
  call void @_ZN4llvh15optional_detail15OptionalStorageIN6hermes18BinaryOperatorInst6OpKindELb1EEC2Ev(ptr noundef nonnull align 4 dereferenceable(5) %Storage) #6
  ret void
}

; Function Attrs: mustprogress nounwind uwtable
define linkonce_odr hidden void @_ZN4llvh8OptionalIN6hermes18BinaryOperatorInst6OpKindEEC2EOS3_(ptr noundef nonnull align 4 dereferenceable(8) %this, ptr noundef nonnull align 4 dereferenceable(4) %y) unnamed_addr #0 comdat align 2 {
entry:
  %this.addr = alloca ptr, align 8
  %y.addr = alloca ptr, align 8
  store ptr %this, ptr %this.addr, align 8
  store ptr %y, ptr %y.addr, align 8
  %this1 = load ptr, ptr %this.addr, align 8
  %Storage = getelementptr inbounds %"class.llvh::Optional", ptr %this1, i32 0, i32 0
  %0 = load ptr, ptr %y.addr, align 8
  call void @_ZN4llvh15optional_detail15OptionalStorageIN6hermes18BinaryOperatorInst6OpKindELb1EEC2ERKS4_(ptr noundef nonnull align 4 dereferenceable(5) %Storage, ptr noundef nonnull align 4 dereferenceable(4) %0)
  ret void
}

; Function Attrs: mustprogress nounwind uwtable
define hidden i64 @_ZN6hermes18BinaryOperatorInst21tryGetReverseOperatorENS0_6OpKindE(i32 noundef %op) #0 align 2 {
entry:
  %retval = alloca %"class.llvh::Optional", align 4
  %op.addr = alloca i32, align 4
  %ref.tmp = alloca i32, align 4
  %ref.tmp3 = alloca i32, align 4
  %ref.tmp5 = alloca i32, align 4
  %ref.tmp7 = alloca i32, align 4
  store i32 %op, ptr %op.addr, align 4
  %0 = load i32, ptr %op.addr, align 4
  switch i32 %0, label %sw.default [
    i32 1, label %sw.bb
    i32 2, label %sw.bb
    i32 3, label %sw.bb
    i32 4, label %sw.bb
    i32 12, label %sw.bb
    i32 14, label %sw.bb
    i32 17, label %sw.bb
    i32 18, label %sw.bb
    i32 19, label %sw.bb
    i32 5, label %sw.bb1
    i32 6, label %sw.bb2
    i32 7, label %sw.bb4
    i32 8, label %sw.bb6
  ]

sw.bb:                                            ; preds = %entry, %entry, %entry, %entry, %entry, %entry, %entry, %entry, %entry
  call void @_ZN4llvh8OptionalIN6hermes18BinaryOperatorInst6OpKindEEC2EOS3_(ptr noundef nonnull align 4 dereferenceable(8) %retval, ptr noundef nonnull align 4 dereferenceable(4) %op.addr)
  br label %return

sw.bb1:                                           ; preds = %entry
  store i32 7, ptr %ref.tmp, align 4
  call void @_ZN4llvh8OptionalIN6hermes18BinaryOperatorInst6OpKindEEC2EOS3_(ptr noundef nonnull align 4 dereferenceable(8) %retval, ptr noundef nonnull align 4 dereferenceable(4) %ref.tmp)
  br label %return

sw.bb2:                                           ; preds = %entry
  store i32 8, ptr %ref.tmp3, align 4
  call void @_ZN4llvh8OptionalIN6hermes18BinaryOperatorInst6OpKindEEC2EOS3_(ptr noundef nonnull align 4 dereferenceable(8) %retval, ptr noundef nonnull align 4 dereferenceable(4) %ref.tmp3)
  br label %return

sw.bb4:                                           ; preds = %entry
  store i32 5, ptr %ref.tmp5, align 4
  call void @_ZN4llvh8OptionalIN6hermes18BinaryOperatorInst6OpKindEEC2EOS3_(ptr noundef nonnull align 4 dereferenceable(8) %retval, ptr noundef nonnull align 4 dereferenceable(4) %ref.tmp5)
  br label %return

sw.bb6:                                           ; preds = %entry
  store i32 6, ptr %ref.tmp7, align 4
  call void @_ZN4llvh8OptionalIN6hermes18BinaryOperatorInst6OpKindEEC2EOS3_(ptr noundef nonnull align 4 dereferenceable(8) %retval, ptr noundef nonnull align 4 dereferenceable(4) %ref.tmp7)
  br label %return

sw.default:                                       ; preds = %entry
  call void @_ZN4llvh8OptionalIN6hermes18BinaryOperatorInst6OpKindEEC2ENS_8NoneTypeE(ptr noundef nonnull align 4 dereferenceable(8) %retval, i32 noundef 1)
  br label %return

return:                                           ; preds = %sw.default, %sw.bb6, %sw.bb4, %sw.bb2, %sw.bb1, %sw.bb
  %coerce.dive = getelementptr inbounds %"class.llvh::Optional", ptr %retval, i32 0, i32 0
  %1 = load i64, ptr %coerce.dive, align 4
  ret i64 %1
}