; Function Attrs: mustprogress nofree norecurse nosync nounwind willreturn memory(none) uwtable
define hidden range(i64 0, 8589934592) i64 @_ZN6hermes18BinaryOperatorInst21tryGetReverseOperatorENS0_6OpKindE(i32 noundef %op) local_unnamed_addr #1 align 2 {
entry:
  %switch.tableidx = add i32 %op, -1
  %0 = icmp ult i32 %switch.tableidx, 19
  br i1 %0, label %switch.lookup, label %return

switch.lookup:                                    ; preds = %entry
  %1 = zext nneg i32 %switch.tableidx to i64
  %switch.gep = getelementptr inbounds nuw [19 x i32], ptr @switch.table._ZN6hermes18BinaryOperatorInst21tryGetReverseOperatorENS0_6OpKindE, i64 0, i64 %1
  %switch.load = load i32, ptr %switch.gep, align 4
  %2 = zext nneg i32 %switch.tableidx to i64
  %switch.gep6 = getelementptr inbounds nuw [19 x i64], ptr @switch.table._ZN6hermes18BinaryOperatorInst21tryGetReverseOperatorENS0_6OpKindE.90, i64 0, i64 %2
  %switch.load7 = load i64, ptr %switch.gep6, align 8
  %3 = zext i32 %switch.load to i64
  %4 = or disjoint i64 %switch.load7, %3
  br label %return

return:                                           ; preds = %entry, %switch.lookup
  %retval.sroa.0.0.insert.insert = phi i64 [ %4, %switch.lookup ], [ 0, %entry ]
  ret i64 %retval.sroa.0.0.insert.insert
}